; Function Attrs: nounwind uwtable
define dso_local ptr @data_get_list_last(ptr noundef %0) local_unnamed_addr #0 {
  %.not = icmp eq ptr %0, null
  br i1 %.not, label %32, label %2

2:                                                ; preds = %1
  %3 = getelementptr inbounds nuw i8, ptr %0, i64 4
  %4 = load i32, ptr %3, align 4
  %.not18 = icmp eq i32 %4, 65282
  br i1 %.not18, label %5, label %32

5:                                                ; preds = %2
  %6 = getelementptr inbounds nuw i8, ptr %0, i64 8
  %7 = load ptr, ptr %6, align 8
  %8 = getelementptr inbounds nuw i8, ptr %7, i64 8
  %9 = load i64, ptr %8, align 8
  %.not19 = icmp eq i64 %9, 0
  br i1 %.not19, label %32, label %10

10:                                               ; preds = %5
  %11 = getelementptr inbounds nuw i8, ptr %7, i64 16
  %12 = load ptr, ptr %11, align 8
  br label %13

13:                                               ; preds = %14, %10
  %.0 = phi ptr [ %12, %10 ], [ %16, %14 ]
  %.not20 = icmp eq ptr %.0, null
  br i1 %.not20, label %31, label %14

14:                                               ; preds = %13
  %15 = getelementptr inbounds nuw i8, ptr %.0, i64 8
  %16 = load ptr, ptr %15, align 8
  %.not21 = icmp eq ptr %16, null
  br i1 %.not21, label %17, label %13, !llvm.loop !23

17:                                               ; preds = %14
  %18 = load i64, ptr getelementptr inbounds nuw (i8, ptr @slurm_conf, i64 320), align 8
  %19 = and i64 %18, 256
  %.not22 = icmp eq i64 %19, 0
  br i1 %.not22, label %28, label %20

20:                                               ; preds = %17
  %21 = tail call i32 @get_log_level() #16
  %22 = icmp sgt i32 %21, 3
  br i1 %22, label %23, label %28

23:                                               ; preds = %20
  %24 = getelementptr inbounds nuw i8, ptr %.0, i64 24
  %25 = load ptr, ptr %24, align 8
  %26 = getelementptr inbounds nuw i8, ptr %.0, i64 16
  %27 = load ptr, ptr %26, align 8
  tail call void (i32, ptr, ...) @log_var(i32 noundef 4, ptr noundef nonnull @.str.27, ptr noundef nonnull @__func__.data_get_list_last, ptr noundef nonnull %0, ptr noundef %25, ptr noundef %27) #16
  br label %28

28:                                               ; preds = %20, %23, %17
  %29 = getelementptr inbounds nuw i8, ptr %.0, i64 16
  %30 = load ptr, ptr %29, align 8
  br label %32

31:                                               ; preds = %13
  tail call void (ptr, ...) @fatal_abort(ptr noundef nonnull @.str.28, ptr noundef nonnull @__func__.data_get_list_last) #18
  unreachable

32:                                               ; preds = %5, %2, %1, %28
  %.015 = phi ptr [ %30, %28 ], [ null, %1 ], [ null, %2 ], [ null, %5 ]
  ret ptr %.015
}